target datalayout = "e-m:e-p270:32:32-p271:32:32-p272:64:64-i64:64-i128:128-f80:128-n8:16:32:64-S128"
target triple = "x86_64-unknown-linux-gnu"

%struct.ssl_st = type { i32, i16, i16, ptr, ptr, ptr, ptr, ptr, i32, i32, ptr, ptr, i32, i32, ptr, ptr, ptr, ptr, ptr, ptr, ptr, ptr, i32, i32, [32 x i8], ptr, ptr, ptr, ptr, ptr, ptr, ptr, i64, %struct.crypto_ex_data_st, ptr, i32, i32, i32, i32, i16, ptr, i32, i64, ptr, ptr, ptr, ptr, ptr, ptr, i32, i32, ptr, ptr, i8, i8, i32 }
%struct.crypto_ex_data_st = type { ptr }
%struct.ssl3_state_st = type { [8 x i8], [8 x i8], [32 x i8], [32 x i8], i8, i8, %struct.ssl3_buffer_st, %struct.ssl3_buffer_st, %struct.ssl3_record_st, i8, i32, i32, i32, i32, ptr, ptr, %struct.env_md_ctx_st, %struct.env_md_ctx_st, i8, i32, [2 x i8], i32, i8, i8, ptr, ptr, ptr, %struct.anon, [64 x i8], i8, [64 x i8], i8, i32, i32, ptr, i64, ptr, i64, i8, [64 x i8] }
%struct.ssl3_buffer_st = type { ptr, i16, i16, i16 }
%struct.ssl3_record_st = type { i8, i16, ptr }
%struct.env_md_ctx_st = type { ptr, ptr, ptr, ptr }
%struct.anon = type { [64 x i8], i32, [64 x i8], i32, i64, i32, ptr, i32, i32, %union.anon, %union.anon.0, i8, i32, ptr, ptr, i64, ptr, i8, i8, i8, i8, i32, i8, ptr, i64, i8, ptr, i8, i8, i8, %struct.ssl_ecdh_ctx_st, ptr, i16 }
%union.anon = type { i32 }
%union.anon.0 = type { i16 }
%struct.ssl_ecdh_ctx_st = type { ptr, ptr }
%struct.ssl_cipher_st = type { ptr, i32, i32, i32, i32, i32, i32 }

; Function Attrs: nounwind uwtable
define hidden i32 @ssl_get_algorithm_prf(ptr noundef %ssl) #0 {
entry:
  %retval = alloca i32, align 4
  %ssl.addr = alloca ptr, align 8
  %algorithm_prf = alloca i32, align 4
  store ptr %ssl, ptr %ssl.addr, align 8
  %0 = load ptr, ptr %ssl.addr, align 8
  %s3 = getelementptr inbounds %struct.ssl_st, ptr %0, i32 0, i32 14
  %1 = load ptr, ptr %s3, align 8
  %tmp = getelementptr inbounds %struct.ssl3_state_st, ptr %1, i32 0, i32 27
  %new_cipher = getelementptr inbounds %struct.anon, ptr %tmp, i32 0, i32 6
  %2 = load ptr, ptr %new_cipher, align 8
  %algorithm_prf1 = getelementptr inbounds %struct.ssl_cipher_st, ptr %2, i32 0, i32 6
  %3 = load i32, ptr %algorithm_prf1, align 4
  store i32 %3, ptr %algorithm_prf, align 4
  %4 = load i32, ptr %algorithm_prf, align 4
  %cmp = icmp eq i32 %4, 1
  br i1 %cmp, label %land.lhs.true, label %if.end

land.lhs.true:                                    ; preds = %entry
  %5 = load ptr, ptr %ssl.addr, align 8
  %call = call zeroext i16 @ssl3_protocol_version(ptr noundef %5)
  %conv = zext i16 %call to i32
  %cmp2 = icmp sge i32 %conv, 771
  br i1 %cmp2, label %if.then, label %if.end

if.then:                                          ; preds = %land.lhs.true
  store i32 2, ptr %retval, align 4
  br label %return

if.end:                                           ; preds = %land.lhs.true, %entry
  %6 = load i32, ptr %algorithm_prf, align 4
  store i32 %6, ptr %retval, align 4
  br label %return

return:                                           ; preds = %if.end, %if.then
  %7 = load i32, ptr %retval, align 4
  ret i32 %7
}