; Function Attrs: nounwind uwtable
define hidden i32 @ssl_get_algorithm_prf(ptr noundef %ssl) local_unnamed_addr #1 {
entry:
  %s3 = getelementptr inbounds nuw i8, ptr %ssl, i64 80
  %0 = load ptr, ptr %s3, align 8
  %new_cipher = getelementptr inbounds nuw i8, ptr %0, i64 440
  %1 = load ptr, ptr %new_cipher, align 8
  %algorithm_prf1 = getelementptr inbounds nuw i8, ptr %1, i64 28
  %2 = load i32, ptr %algorithm_prf1, align 4
  %cmp = icmp eq i32 %2, 1
  br i1 %cmp, label %land.lhs.true, label %if.end

land.lhs.true:                                    ; preds = %entry
  %call = tail call zeroext i16 @ssl3_protocol_version(ptr noundef nonnull %ssl) #14
  %cmp2 = icmp ugt i16 %call, 770
  br i1 %cmp2, label %return, label %if.end

if.end:                                           ; preds = %land.lhs.true, %entry
  br label %return

return:                                           ; preds = %land.lhs.true, %if.end
  %retval.0 = phi i32 [ %2, %if.end ], [ 2, %land.lhs.true ]
  ret i32 %retval.0
}